; ModuleID = '7/83.c'
source_filename = "7/83.c"
target datalayout = "e-m:e-p270:32:32-p271:32:32-p272:64:64-i64:64-f80:128-n8:16:32:64-S128"
target triple = "x86_64-pc-linux-gnu"

; Function Attrs: noinline nounwind uwtable
define dso_local i32 @main() #0 {
  %1 = alloca i32, align 4
  %2 = alloca [256 x i8], align 16
  %3 = alloca [256 x i8], align 16
  %4 = alloca [256 x i8], align 16
  %5 = alloca i32, align 4
  %6 = alloca i32, align 4
  %7 = alloca i32, align 4
  %8 = alloca i32, align 4
  %9 = alloca i32, align 4
  store i32 0, i32* %1, align 4
  store i32 0, i32* %8, align 4
  store i32 0, i32* %9, align 4
  %10 = getelementptr inbounds [256 x i8], [256 x i8]* %2, i64 0, i64 0
  %11 = call i32 (i8*, ...) bitcast (i32 (...)* @gets to i32 (i8*, ...)*)(i8* %10)
  %12 = getelementptr inbounds [256 x i8], [256 x i8]* %3, i64 0, i64 0
  %13 = call i32 (i8*, ...) bitcast (i32 (...)* @gets to i32 (i8*, ...)*)(i8* %12)
  %14 = getelementptr inbounds [256 x i8], [256 x i8]* %4, i64 0, i64 0
  %15 = call i32 (i8*, ...) bitcast (i32 (...)* @gets to i32 (i8*, ...)*)(i8* %14)
  %16 = getelementptr inbounds [256 x i8], [256 x i8]* %2, i64 0, i64 0
  %17 = call i64 @strlen(i8* %16) #3
  %18 = trunc i64 %17 to i32
  store i32 %18, i32* %6, align 4
  store i32 0, i32* %5, align 4
  br label %19

19:                                               ; preds = %60, %0
  %20 = load i32, i32* %5, align 4
  %21 = load i32, i32* %6, align 4
  %22 = icmp slt i32 %20, %21
  br i1 %22, label %23, label %63

23:                                               ; preds = %19
  %24 = load i32, i32* %5, align 4
  %25 = sext i32 %24 to i64
  %26 = getelementptr inbounds [256 x i8], [256 x i8]* %2, i64 0, i64 %25
  %27 = load i8, i8* %26, align 1
  %28 = sext i8 %27 to i32
  %29 = getelementptr inbounds [256 x i8], [256 x i8]* %3, i64 0, i64 0
  %30 = load i8, i8* %29, align 16
  %31 = sext i8 %30 to i32
  %32 = icmp eq i32 %28, %31
  br i1 %32, label %33, label %59

33:                                               ; preds = %23
  %34 = load i32, i32* %5, align 4
  %35 = add nsw i32 %34, 1
  %36 = sext i32 %35 to i64
  %37 = getelementptr inbounds [256 x i8], [256 x i8]* %2, i64 0, i64 %36
  %38 = load i8, i8* %37, align 1
  %39 = sext i8 %38 to i32
  %40 = getelementptr inbounds [256 x i8], [256 x i8]* %3, i64 0, i64 1
  %41 = load i8, i8* %40, align 1
  %42 = sext i8 %41 to i32
  %43 = icmp eq i32 %39, %42
  br i1 %43, label %44, label %58

44:                                               ; preds = %33
  %45 = load i32, i32* %5, align 4
  %46 = add nsw i32 %45, 2
  %47 = sext i32 %46 to i64
  %48 = getelementptr inbounds [256 x i8], [256 x i8]* %2, i64 0, i64 %47
  %49 = load i8, i8* %48, align 1
  %50 = sext i8 %49 to i32
  %51 = getelementptr inbounds [256 x i8], [256 x i8]* %3, i64 0, i64 2
  %52 = load i8, i8* %51, align 2
  %53 = sext i8 %52 to i32
  %54 = icmp eq i32 %50, %53
  br i1 %54, label %55, label %57

55:                                               ; preds = %44
  %56 = load i32, i32* %5, align 4
  store i32 %56, i32* %8, align 4
  br label %63

57:                                               ; preds = %44
  br label %58

58:                                               ; preds = %57, %33
  br label %59

59:                                               ; preds = %58, %23
  br label %60

60:                                               ; preds = %59
  %61 = load i32, i32* %5, align 4
  %62 = add nsw i32 %61, 1
  store i32 %62, i32* %5, align 4
  br label %19

63:                                               ; preds = %55, %19
  %64 = getelementptr inbounds [256 x i8], [256 x i8]* %4, i64 0, i64 0
  %65 = call i64 @strlen(i8* %64) #3
  %66 = trunc i64 %65 to i32
  store i32 %66, i32* %7, align 4
  %67 = load i32, i32* %8, align 4
  %68 = icmp ne i32 %67, 0
  br i1 %68, label %69, label %91

69:                                               ; preds = %63
  %70 = load i32, i32* %8, align 4
  store i32 %70, i32* %5, align 4
  br label %71

71:                                               ; preds = %87, %69
  %72 = load i32, i32* %5, align 4
  %73 = load i32, i32* %8, align 4
  %74 = load i32, i32* %7, align 4
  %75 = add nsw i32 %73, %74
  %76 = icmp slt i32 %72, %75
  br i1 %76, label %77, label %90

77:                                               ; preds = %71
  %78 = load i32, i32* %9, align 4
  %79 = sext i32 %78 to i64
  %80 = getelementptr inbounds [256 x i8], [256 x i8]* %4, i64 0, i64 %79
  %81 = load i8, i8* %80, align 1
  %82 = load i32, i32* %5, align 4
  %83 = sext i32 %82 to i64
  %84 = getelementptr inbounds [256 x i8], [256 x i8]* %2, i64 0, i64 %83
  store i8 %81, i8* %84, align 1
  %85 = load i32, i32* %9, align 4
  %86 = add nsw i32 %85, 1
  store i32 %86, i32* %9, align 4
  br label %87

87:                                               ; preds = %77
  %88 = load i32, i32* %5, align 4
  %89 = add nsw i32 %88, 1
  store i32 %89, i32* %5, align 4
  br label %71

90:                                               ; preds = %71
  br label %91

91:                                               ; preds = %90, %63
  %92 = getelementptr inbounds [256 x i8], [256 x i8]* %2, i64 0, i64 0
  %93 = call i32 @puts(i8* %92)
  ret i32 0
}

declare dso_local i32 @gets(...) #1

; Function Attrs: nounwind readonly
declare dso_local i64 @strlen(i8*) #2

declare dso_local i32 @puts(i8*) #1


!llvm.module.flags = !{!0}
!llvm.ident = !{!1}

!0 = !{i32 1, !"wchar_size", i32 4}
!1 = !{!"clang version 10.0.0-4ubuntu1 "}
