; ModuleID = 'source-C-CXX/6/83.c'
source_filename = "source-C-CXX/6/83.c"
target datalayout = "e-m:e-p270:32:32-p271:32:32-p272:64:64-i64:64-f80:128-n8:16:32:64-S128"
target triple = "x86_64-pc-linux-gnu"

; Function Attrs: nounwind sspstrong uwtable
define dso_local i32 @main() local_unnamed_addr #0 {
  %1 = alloca [256 x i8], align 16
  %2 = alloca [256 x i8], align 16
  %3 = alloca [256 x i8], align 16
  %4 = getelementptr inbounds [256 x i8], [256 x i8]* %3, i64 0, i64 0
  %5 = getelementptr inbounds [256 x i8], [256 x i8]* %1, i64 0, i64 0
  call void @llvm.lifetime.start.p0i8(i64 256, i8* nonnull %5) #7
  %6 = getelementptr inbounds [256 x i8], [256 x i8]* %2, i64 0, i64 0
  call void @llvm.lifetime.start.p0i8(i64 256, i8* nonnull %6) #7
  %7 = getelementptr inbounds [256 x i8], [256 x i8]* %3, i64 0, i64 0
  call void @llvm.lifetime.start.p0i8(i64 256, i8* nonnull %7) #7
  %8 = call i32 (i8*, ...) bitcast (i32 (...)* @gets to i32 (i8*, ...)*)(i8* nonnull %5) #7
  %9 = call i32 (i8*, ...) bitcast (i32 (...)* @gets to i32 (i8*, ...)*)(i8* nonnull %6) #7
  %10 = call i32 (i8*, ...) bitcast (i32 (...)* @gets to i32 (i8*, ...)*)(i8* nonnull %7) #7
  %11 = call i64 @strlen(i8* noundef nonnull %5) #8
  %12 = trunc i64 %11 to i32
  %13 = load i8, i8* %6, align 16
  %14 = getelementptr inbounds [256 x i8], [256 x i8]* %2, i64 0, i64 1
  %15 = load i8, i8* %14, align 1
  %16 = getelementptr inbounds [256 x i8], [256 x i8]* %2, i64 0, i64 2
  %17 = load i8, i8* %16, align 2
  %18 = icmp sgt i32 %12, 0
  br i1 %18, label %19, label %54

19:                                               ; preds = %0
  %20 = and i64 %11, 4294967295
  br label %21

21:                                               ; preds = %19, %36
  %22 = phi i64 [ 0, %19 ], [ %26, %36 ]
  %23 = getelementptr [256 x i8], [256 x i8]* %1, i64 0, i64 %22
  %24 = load i8, i8* %23, align 1, !tbaa !5
  %25 = icmp eq i8 %24, %13
  %26 = add nuw nsw i64 %22, 1
  br i1 %25, label %27, label %36

27:                                               ; preds = %21
  %28 = getelementptr inbounds [256 x i8], [256 x i8]* %1, i64 0, i64 %26
  %29 = load i8, i8* %28, align 1, !tbaa !5
  %30 = icmp eq i8 %29, %15
  br i1 %30, label %31, label %36

31:                                               ; preds = %27
  %32 = add nuw nsw i64 %22, 2
  %33 = getelementptr inbounds [256 x i8], [256 x i8]* %1, i64 0, i64 %32
  %34 = load i8, i8* %33, align 1, !tbaa !5
  %35 = icmp eq i8 %34, %17
  br i1 %35, label %38, label %36

36:                                               ; preds = %21, %31, %27
  %37 = icmp eq i64 %26, %20
  br i1 %37, label %54, label %21, !llvm.loop !8

38:                                               ; preds = %31
  %39 = getelementptr [256 x i8], [256 x i8]* %1, i64 0, i64 %22
  %40 = trunc i64 %22 to i32
  %41 = icmp eq i32 %40, 0
  br i1 %41, label %54, label %42

42:                                               ; preds = %38
  %43 = call i64 @strlen(i8* noundef nonnull %7) #8
  %44 = trunc i64 %43 to i32
  %45 = icmp sgt i32 %44, 0
  br i1 %45, label %46, label %54

46:                                               ; preds = %42
  %47 = add i32 %44, %40
  %48 = add nuw nsw i32 %40, 1
  %49 = call i32 @llvm.smax.i32(i32 %47, i32 %48)
  %50 = xor i32 %40, -1
  %51 = add i32 %49, %50
  %52 = zext i32 %51 to i64
  %53 = add nuw nsw i64 %52, 1
  call void @llvm.memcpy.p0i8.p0i8.i64(i8* noundef nonnull align 1 %39, i8* noundef nonnull align 16 %4, i64 %53, i1 false)
  br label %54

54:                                               ; preds = %36, %46, %0, %42, %38
  %55 = call i32 @puts(i8* nonnull %5)
  call void @llvm.lifetime.end.p0i8(i64 256, i8* nonnull %7) #7
  call void @llvm.lifetime.end.p0i8(i64 256, i8* nonnull %6) #7
  call void @llvm.lifetime.end.p0i8(i64 256, i8* nonnull %5) #7
  ret i32 0
}

; Function Attrs: argmemonly mustprogress nofree nosync nounwind willreturn
declare void @llvm.lifetime.start.p0i8(i64 immarg, i8* nocapture) #1

declare i32 @gets(...) local_unnamed_addr #2

; Function Attrs: argmemonly mustprogress nofree nounwind readonly willreturn
declare i64 @strlen(i8* nocapture) local_unnamed_addr #3

; Function Attrs: nofree nounwind
declare noundef i32 @puts(i8* nocapture noundef readonly) local_unnamed_addr #4

; Function Attrs: argmemonly mustprogress nofree nosync nounwind willreturn
declare void @llvm.lifetime.end.p0i8(i64 immarg, i8* nocapture) #1

; Function Attrs: nofree nosync nounwind readnone speculatable willreturn
declare i32 @llvm.smax.i32(i32, i32) #5

; Function Attrs: argmemonly nofree nounwind willreturn
declare void @llvm.memcpy.p0i8.p0i8.i64(i8* noalias nocapture writeonly, i8* noalias nocapture readonly, i64, i1 immarg) #6


!llvm.module.flags = !{!0, !1, !2, !3}
!llvm.ident = !{!4}

!0 = !{i32 1, !"wchar_size", i32 4}
!1 = !{i32 7, !"PIC Level", i32 2}
!2 = !{i32 7, !"PIE Level", i32 2}
!3 = !{i32 7, !"uwtable", i32 1}
!4 = !{!"clang version 13.0.0"}
!5 = !{!6, !6, i64 0}
!6 = !{!"omnipotent char", !7, i64 0}
!7 = !{!"Simple C/C++ TBAA"}
!8 = distinct !{!8, !9}
!9 = !{!"llvm.loop.mustprogress"}
